; ModuleID = 'bench/openssl/original/ess_err.ll'
source_filename = "bench/openssl/original/ess_err.ll"
target datalayout = "e-m:e-p270:32:32-p271:32:32-p272:64:64-i64:64-i128:128-f80:128-n8:16:32:64-S128"
target triple = "x86_64-pc-linux-gnu"

%struct.ERR_string_data_st = type { i64, ptr }

@ESS_str_reasons = internal constant [10 x %struct.ERR_string_data_st] [%struct.ERR_string_data_st { i64 452984939, ptr @.str }, %struct.ERR_string_data_st { i64 452984935, ptr @.str.1 }, %struct.ERR_string_data_st { i64 452984936, ptr @.str.2 }, %struct.ERR_string_data_st { i64 452984937, ptr @.str.3 }, %struct.ERR_string_data_st { i64 452984938, ptr @.str.4 }, %struct.ERR_string_data_st { i64 452984934, ptr @.str.5 }, %struct.ERR_string_data_st { i64 452984932, ptr @.str.6 }, %struct.ERR_string_data_st { i64 452984933, ptr @.str.7 }, %struct.ERR_string_data_st { i64 452984940, ptr @.str.8 }, %struct.ERR_string_data_st zeroinitializer], align 16
@.str = private unnamed_addr constant [23 x i8] c"empty ess cert id list\00", align 1
@.str.1 = private unnamed_addr constant [22 x i8] c"ess cert digest error\00", align 1
@.str.2 = private unnamed_addr constant [22 x i8] c"ess cert id not found\00", align 1
@.str.3 = private unnamed_addr constant [24 x i8] c"ess cert id wrong order\00", align 1
@.str.4 = private unnamed_addr constant [23 x i8] c"ess digest alg unknown\00", align 1
@.str.5 = private unnamed_addr constant [30 x i8] c"ess signing certificate error\00", align 1
@.str.6 = private unnamed_addr constant [27 x i8] c"ess signing cert add error\00", align 1
@.str.7 = private unnamed_addr constant [30 x i8] c"ess signing cert v2 add error\00", align 1
@.str.8 = private unnamed_addr constant [38 x i8] c"missing signing certificate attribute\00", align 1

; Function Attrs: nounwind uwtable
define noundef i32 @ossl_err_load_ESS_strings() local_unnamed_addr #0 {
  %1 = tail call ptr @ERR_reason_error_string(i64 noundef 452984939) #2
  %2 = icmp eq ptr %1, null
  br i1 %2, label %3, label %5

3:                                                ; preds = %0
  %4 = tail call i32 @ERR_load_strings_const(ptr noundef nonnull @ESS_str_reasons) #2
  br label %5

5:                                                ; preds = %3, %0
  ret i32 1
}

declare ptr @ERR_reason_error_string(i64 noundef) local_unnamed_addr #1

declare i32 @ERR_load_strings_const(ptr noundef) local_unnamed_addr #1


!llvm.module.flags = !{!0, !1, !2}

!0 = !{i32 1, !"wchar_size", i32 4}
!1 = !{i32 8, !"PIC Level", i32 2}
!2 = !{i32 7, !"uwtable", i32 2}
